target datalayout = "e-m:e-p270:32:32-p271:32:32-p272:64:64-i64:64-i128:128-f80:128-n8:16:32:64-S128"
target triple = "x86_64-pc-linux-gnu"

@.str.17 = private unnamed_addr constant [72 x i8] c"\0AidaRoberts_dns: Robertson kinetics DAE serial example problem for IDA\0A\00", align 1
@.str.18 = private unnamed_addr constant [53 x i8] c"         Three equation chemical kinetics problem.\0A\0A\00", align 1
@.str.19 = private unnamed_addr constant [52 x i8] c"Linear solver: DENSE, with user-supplied Jacobian.\0A\00", align 1
@.str.20 = private unnamed_addr constant [53 x i8] c"Tolerance parameters:  rtol = %g   atol = %g %g %g \0A\00", align 1
@.str.21 = private unnamed_addr constant [36 x i8] c"Initial conditions y0 = (%g %g %g)\0A\00", align 1
@.str.22 = private unnamed_addr constant [31 x i8] c"Constraints and id not used.\0A\0A\00", align 1
@.str.23 = private unnamed_addr constant [73 x i8] c"-----------------------------------------------------------------------\0A\00", align 1
@.str.24 = private unnamed_addr constant [45 x i8] c"  t             y1           y2           y3\00", align 1
@.str.25 = private unnamed_addr constant [23 x i8] c"      | nst  k      h\0A\00", align 1

; Function Attrs: nounwind uwtable
define internal void @PrintHeader(double noundef %0, ptr noundef %1, ptr noundef %2) #0 {
  %4 = alloca double, align 8
  %5 = alloca ptr, align 8
  %6 = alloca ptr, align 8
  %7 = alloca ptr, align 8
  %8 = alloca ptr, align 8
  store double %0, ptr %4, align 8, !tbaa !22
  store ptr %1, ptr %5, align 8, !tbaa !8
  store ptr %2, ptr %6, align 8, !tbaa !8
  call void @llvm.lifetime.start.p0(i64 8, ptr %7) #5
  call void @llvm.lifetime.start.p0(i64 8, ptr %8) #5
  %9 = load ptr, ptr %5, align 8, !tbaa !8
  %10 = call ptr @N_VGetArrayPointer(ptr noundef %9)
  store ptr %10, ptr %7, align 8, !tbaa !10
  %11 = load ptr, ptr %6, align 8, !tbaa !8
  %12 = call ptr @N_VGetArrayPointer(ptr noundef %11)
  store ptr %12, ptr %8, align 8, !tbaa !10
  %13 = call i32 (ptr, ...) @printf(ptr noundef @.str.17)
  %14 = call i32 (ptr, ...) @printf(ptr noundef @.str.18)
  %15 = call i32 (ptr, ...) @printf(ptr noundef @.str.19)
  %16 = load double, ptr %4, align 8, !tbaa !22
  %17 = load ptr, ptr %7, align 8, !tbaa !10
  %18 = getelementptr inbounds double, ptr %17, i64 0
  %19 = load double, ptr %18, align 8, !tbaa !22
  %20 = load ptr, ptr %7, align 8, !tbaa !10
  %21 = getelementptr inbounds double, ptr %20, i64 1
  %22 = load double, ptr %21, align 8, !tbaa !22
  %23 = load ptr, ptr %7, align 8, !tbaa !10
  %24 = getelementptr inbounds double, ptr %23, i64 2
  %25 = load double, ptr %24, align 8, !tbaa !22
  %26 = call i32 (ptr, ...) @printf(ptr noundef @.str.20, double noundef %16, double noundef %19, double noundef %22, double noundef %25)
  %27 = load ptr, ptr %8, align 8, !tbaa !10
  %28 = getelementptr inbounds double, ptr %27, i64 0
  %29 = load double, ptr %28, align 8, !tbaa !22
  %30 = load ptr, ptr %8, align 8, !tbaa !10
  %31 = getelementptr inbounds double, ptr %30, i64 1
  %32 = load double, ptr %31, align 8, !tbaa !22
  %33 = load ptr, ptr %8, align 8, !tbaa !10
  %34 = getelementptr inbounds double, ptr %33, i64 2
  %35 = load double, ptr %34, align 8, !tbaa !22
  %36 = call i32 (ptr, ...) @printf(ptr noundef @.str.21, double noundef %29, double noundef %32, double noundef %35)
  %37 = call i32 (ptr, ...) @printf(ptr noundef @.str.22)
  %38 = call i32 (ptr, ...) @printf(ptr noundef @.str.23)
  %39 = call i32 (ptr, ...) @printf(ptr noundef @.str.24)
  %40 = call i32 (ptr, ...) @printf(ptr noundef @.str.25)
  %41 = call i32 (ptr, ...) @printf(ptr noundef @.str.23)
  call void @llvm.lifetime.end.p0(i64 8, ptr %8) #5
  call void @llvm.lifetime.end.p0(i64 8, ptr %7) #5
  ret void
}